; Function Attrs: mustprogress nofree norecurse nosync nounwind willreturn memory(argmem: read) uwtable
define internal range(i32 -1, 2) i32 @vcmpid(ptr noundef readonly captures(none) %0, ptr noundef readonly captures(none) %1) #12 {
  %3 = load double, ptr %0, align 8, !tbaa !100
  %4 = load double, ptr %1, align 8, !tbaa !100
  %5 = fsub double %3, %4
  %6 = fcmp olt double %5, 0xBE7AD7F29ABCAF48
  %7 = fcmp ogt double %5, 0x3E7AD7F29ABCAF48
  %..i = zext i1 %7 to i32
  %.0.i = select i1 %6, i32 -1, i32 %..i
  %.not = icmp eq i32 %.0.i, 0
  br i1 %.not, label %8, label %16

8:                                                ; preds = %2
  %9 = getelementptr inbounds nuw i8, ptr %0, i64 8
  %10 = load double, ptr %9, align 8, !tbaa !98
  %11 = getelementptr inbounds nuw i8, ptr %1, i64 8
  %12 = load double, ptr %11, align 8, !tbaa !98
  %13 = fsub double %10, %12
  %14 = fcmp olt double %13, 0xBE7AD7F29ABCAF48
  %15 = fcmp ogt double %13, 0x3E7AD7F29ABCAF48
  %..i9 = zext i1 %15 to i32
  %.0.i10 = select i1 %14, i32 -1, i32 %..i9
  br label %16

16:                                               ; preds = %2, %8
  %.0 = phi i32 [ %.0.i10, %8 ], [ %.0.i, %2 ]
  ret i32 %.0
}